target datalayout = "e-m:e-p270:32:32-p271:32:32-p272:64:64-i64:64-f80:128-n8:16:32:64-S128"
target triple = "x86_64-pc-linux-gnu"

@.str = private unnamed_addr constant [3 x i8] c"%d\00", align 1
@.str.1 = private unnamed_addr constant [9 x i8] c"%d %d %d\00", align 1
@.str.2 = private unnamed_addr constant [29 x i8] c"(%d,%d,%d)-(%d,%d,%d)=%.2lf\0A\00", align 1

; Function Attrs: noinline nounwind uwtable
define dso_local i32 @main() #0 {
  %1 = alloca i32, align 4
  %2 = alloca i32, align 4
  %3 = alloca i32, align 4
  %4 = alloca i32, align 4
  %5 = alloca [10 x i32], align 16
  %6 = alloca [10 x i32], align 16
  %7 = alloca [10 x i32], align 16
  %8 = alloca i32, align 4
  %9 = alloca [10 x [10 x double]], align 16
  %10 = alloca [100 x double], align 16
  %11 = alloca double, align 8
  store i32 0, i32* %1, align 4
  store i32 0, i32* %3, align 4
  %12 = call i32 (i8*, ...) @__isoc99_scanf(i8* getelementptr inbounds ([3 x i8], [3 x i8]* @.str, i64 0, i64 0), i32* %2)
  store i32 0, i32* %4, align 4
  br label %13

13:                                               ; preds = %28, %0
  %14 = load i32, i32* %4, align 4
  %15 = load i32, i32* %2, align 4
  %16 = icmp slt i32 %14, %15
  br i1 %16, label %17, label %31

17:                                               ; preds = %13
  %18 = load i32, i32* %4, align 4
  %19 = sext i32 %18 to i64
  %20 = getelementptr inbounds [10 x i32], [10 x i32]* %5, i64 0, i64 %19
  %21 = load i32, i32* %4, align 4
  %22 = sext i32 %21 to i64
  %23 = getelementptr inbounds [10 x i32], [10 x i32]* %6, i64 0, i64 %22
  %24 = load i32, i32* %4, align 4
  %25 = sext i32 %24 to i64
  %26 = getelementptr inbounds [10 x i32], [10 x i32]* %7, i64 0, i64 %25
  %27 = call i32 (i8*, ...) @__isoc99_scanf(i8* getelementptr inbounds ([9 x i8], [9 x i8]* @.str.1, i64 0, i64 0), i32* %20, i32* %23, i32* %26)
  br label %28

28:                                               ; preds = %17
  %29 = load i32, i32* %4, align 4
  %30 = add nsw i32 %29, 1
  store i32 %30, i32* %4, align 4
  br label %13

31:                                               ; preds = %13
  store i32 0, i32* %4, align 4
  br label %32

32:                                               ; preds = %127, %31
  %33 = load i32, i32* %4, align 4
  %34 = load i32, i32* %2, align 4
  %35 = icmp slt i32 %33, %34
  br i1 %35, label %36, label %130

36:                                               ; preds = %32
  %37 = load i32, i32* %4, align 4
  %38 = add nsw i32 %37, 1
  store i32 %38, i32* %8, align 4
  br label %39

39:                                               ; preds = %123, %36
  %40 = load i32, i32* %8, align 4
  %41 = load i32, i32* %2, align 4
  %42 = icmp slt i32 %40, %41
  br i1 %42, label %43, label %126

43:                                               ; preds = %39
  %44 = load i32, i32* %4, align 4
  %45 = sext i32 %44 to i64
  %46 = getelementptr inbounds [10 x i32], [10 x i32]* %5, i64 0, i64 %45
  %47 = load i32, i32* %46, align 4
  %48 = load i32, i32* %8, align 4
  %49 = sext i32 %48 to i64
  %50 = getelementptr inbounds [10 x i32], [10 x i32]* %5, i64 0, i64 %49
  %51 = load i32, i32* %50, align 4
  %52 = sub nsw i32 %47, %51
  %53 = load i32, i32* %4, align 4
  %54 = sext i32 %53 to i64
  %55 = getelementptr inbounds [10 x i32], [10 x i32]* %5, i64 0, i64 %54
  %56 = load i32, i32* %55, align 4
  %57 = load i32, i32* %8, align 4
  %58 = sext i32 %57 to i64
  %59 = getelementptr inbounds [10 x i32], [10 x i32]* %5, i64 0, i64 %58
  %60 = load i32, i32* %59, align 4
  %61 = sub nsw i32 %56, %60
  %62 = mul nsw i32 %52, %61
  %63 = load i32, i32* %4, align 4
  %64 = sext i32 %63 to i64
  %65 = getelementptr inbounds [10 x i32], [10 x i32]* %6, i64 0, i64 %64
  %66 = load i32, i32* %65, align 4
  %67 = load i32, i32* %8, align 4
  %68 = sext i32 %67 to i64
  %69 = getelementptr inbounds [10 x i32], [10 x i32]* %6, i64 0, i64 %68
  %70 = load i32, i32* %69, align 4
  %71 = sub nsw i32 %66, %70
  %72 = load i32, i32* %4, align 4
  %73 = sext i32 %72 to i64
  %74 = getelementptr inbounds [10 x i32], [10 x i32]* %6, i64 0, i64 %73
  %75 = load i32, i32* %74, align 4
  %76 = load i32, i32* %8, align 4
  %77 = sext i32 %76 to i64
  %78 = getelementptr inbounds [10 x i32], [10 x i32]* %6, i64 0, i64 %77
  %79 = load i32, i32* %78, align 4
  %80 = sub nsw i32 %75, %79
  %81 = mul nsw i32 %71, %80
  %82 = add nsw i32 %62, %81
  %83 = load i32, i32* %4, align 4
  %84 = sext i32 %83 to i64
  %85 = getelementptr inbounds [10 x i32], [10 x i32]* %7, i64 0, i64 %84
  %86 = load i32, i32* %85, align 4
  %87 = load i32, i32* %8, align 4
  %88 = sext i32 %87 to i64
  %89 = getelementptr inbounds [10 x i32], [10 x i32]* %7, i64 0, i64 %88
  %90 = load i32, i32* %89, align 4
  %91 = sub nsw i32 %86, %90
  %92 = load i32, i32* %4, align 4
  %93 = sext i32 %92 to i64
  %94 = getelementptr inbounds [10 x i32], [10 x i32]* %7, i64 0, i64 %93
  %95 = load i32, i32* %94, align 4
  %96 = load i32, i32* %8, align 4
  %97 = sext i32 %96 to i64
  %98 = getelementptr inbounds [10 x i32], [10 x i32]* %7, i64 0, i64 %97
  %99 = load i32, i32* %98, align 4
  %100 = sub nsw i32 %95, %99
  %101 = mul nsw i32 %91, %100
  %102 = add nsw i32 %82, %101
  %103 = sitofp i32 %102 to double
  %104 = call double @sqrt(double %103) #3
  %105 = load i32, i32* %4, align 4
  %106 = sext i32 %105 to i64
  %107 = getelementptr inbounds [10 x [10 x double]], [10 x [10 x double]]* %9, i64 0, i64 %106
  %108 = load i32, i32* %8, align 4
  %109 = sext i32 %108 to i64
  %110 = getelementptr inbounds [10 x double], [10 x double]* %107, i64 0, i64 %109
  store double %104, double* %110, align 8
  %111 = load i32, i32* %4, align 4
  %112 = sext i32 %111 to i64
  %113 = getelementptr inbounds [10 x [10 x double]], [10 x [10 x double]]* %9, i64 0, i64 %112
  %114 = load i32, i32* %8, align 4
  %115 = sext i32 %114 to i64
  %116 = getelementptr inbounds [10 x double], [10 x double]* %113, i64 0, i64 %115
  %117 = load double, double* %116, align 8
  %118 = load i32, i32* %3, align 4
  %119 = sext i32 %118 to i64
  %120 = getelementptr inbounds [100 x double], [100 x double]* %10, i64 0, i64 %119
  store double %117, double* %120, align 8
  %121 = load i32, i32* %3, align 4
  %122 = add nsw i32 %121, 1
  store i32 %122, i32* %3, align 4
  br label %123

123:                                              ; preds = %43
  %124 = load i32, i32* %8, align 4
  %125 = add nsw i32 %124, 1
  store i32 %125, i32* %8, align 4
  br label %39

126:                                              ; preds = %39
  br label %127

127:                                              ; preds = %126
  %128 = load i32, i32* %4, align 4
  %129 = add nsw i32 %128, 1
  store i32 %129, i32* %4, align 4
  br label %32

130:                                              ; preds = %32
  store i32 1, i32* %8, align 4
  br label %131

131:                                              ; preds = %176, %130
  %132 = load i32, i32* %8, align 4
  %133 = load i32, i32* %3, align 4
  %134 = icmp sle i32 %132, %133
  br i1 %134, label %135, label %179

135:                                              ; preds = %131
  store i32 0, i32* %4, align 4
  br label %136

136:                                              ; preds = %172, %135
  %137 = load i32, i32* %4, align 4
  %138 = load i32, i32* %3, align 4
  %139 = load i32, i32* %8, align 4
  %140 = sub nsw i32 %138, %139
  %141 = icmp slt i32 %137, %140
  br i1 %141, label %142, label %175

142:                                              ; preds = %136
  %143 = load i32, i32* %4, align 4
  %144 = sext i32 %143 to i64
  %145 = getelementptr inbounds [100 x double], [100 x double]* %10, i64 0, i64 %144
  %146 = load double, double* %145, align 8
  %147 = load i32, i32* %4, align 4
  %148 = add nsw i32 %147, 1
  %149 = sext i32 %148 to i64
  %150 = getelementptr inbounds [100 x double], [100 x double]* %10, i64 0, i64 %149
  %151 = load double, double* %150, align 8
  %152 = fcmp ogt double %146, %151
  br i1 %152, label %153, label %171

153:                                              ; preds = %142
  %154 = load i32, i32* %4, align 4
  %155 = add nsw i32 %154, 1
  %156 = sext i32 %155 to i64
  %157 = getelementptr inbounds [100 x double], [100 x double]* %10, i64 0, i64 %156
  %158 = load double, double* %157, align 8
  store double %158, double* %11, align 8
  %159 = load i32, i32* %4, align 4
  %160 = sext i32 %159 to i64
  %161 = getelementptr inbounds [100 x double], [100 x double]* %10, i64 0, i64 %160
  %162 = load double, double* %161, align 8
  %163 = load i32, i32* %4, align 4
  %164 = add nsw i32 %163, 1
  %165 = sext i32 %164 to i64
  %166 = getelementptr inbounds [100 x double], [100 x double]* %10, i64 0, i64 %165
  store double %162, double* %166, align 8
  %167 = load double, double* %11, align 8
  %168 = load i32, i32* %4, align 4
  %169 = sext i32 %168 to i64
  %170 = getelementptr inbounds [100 x double], [100 x double]* %10, i64 0, i64 %169
  store double %167, double* %170, align 8
  br label %171

171:                                              ; preds = %153, %142
  br label %172

172:                                              ; preds = %171
  %173 = load i32, i32* %4, align 4
  %174 = add nsw i32 %173, 1
  store i32 %174, i32* %4, align 4
  br label %136

175:                                              ; preds = %136
  br label %176

176:                                              ; preds = %175
  %177 = load i32, i32* %8, align 4
  %178 = add nsw i32 %177, 1
  store i32 %178, i32* %8, align 4
  br label %131

179:                                              ; preds = %131
  %180 = load i32, i32* %3, align 4
  br label %181

181:                                              ; preds = %271, %179
  %182 = load i32, i32* %3, align 4
  %183 = icmp sge i32 %182, 0
  br i1 %183, label %184, label %274

184:                                              ; preds = %181
  store i32 0, i32* %4, align 4
  br label %185

185:                                              ; preds = %267, %184
  %186 = load i32, i32* %4, align 4
  %187 = load i32, i32* %2, align 4
  %188 = icmp slt i32 %186, %187
  br i1 %188, label %189, label %270

189:                                              ; preds = %185
  %190 = load i32, i32* %4, align 4
  %191 = add nsw i32 %190, 1
  store i32 %191, i32* %8, align 4
  br label %192

192:                                              ; preds = %243, %189
  %193 = load i32, i32* %8, align 4
  %194 = load i32, i32* %2, align 4
  %195 = icmp slt i32 %193, %194
  br i1 %195, label %196, label %246

196:                                              ; preds = %192
  %197 = load i32, i32* %3, align 4
  %198 = sext i32 %197 to i64
  %199 = getelementptr inbounds [100 x double], [100 x double]* %10, i64 0, i64 %198
  %200 = load double, double* %199, align 8
  %201 = load i32, i32* %4, align 4
  %202 = sext i32 %201 to i64
  %203 = getelementptr inbounds [10 x [10 x double]], [10 x [10 x double]]* %9, i64 0, i64 %202
  %204 = load i32, i32* %8, align 4
  %205 = sext i32 %204 to i64
  %206 = getelementptr inbounds [10 x double], [10 x double]* %203, i64 0, i64 %205
  %207 = load double, double* %206, align 8
  %208 = fcmp oeq double %200, %207
  br i1 %208, label %209, label %242

209:                                              ; preds = %196
  %210 = load i32, i32* %4, align 4
  %211 = sext i32 %210 to i64
  %212 = getelementptr inbounds [10 x i32], [10 x i32]* %5, i64 0, i64 %211
  %213 = load i32, i32* %212, align 4
  %214 = load i32, i32* %4, align 4
  %215 = sext i32 %214 to i64
  %216 = getelementptr inbounds [10 x i32], [10 x i32]* %6, i64 0, i64 %215
  %217 = load i32, i32* %216, align 4
  %218 = load i32, i32* %4, align 4
  %219 = sext i32 %218 to i64
  %220 = getelementptr inbounds [10 x i32], [10 x i32]* %7, i64 0, i64 %219
  %221 = load i32, i32* %220, align 4
  %222 = load i32, i32* %8, align 4
  %223 = sext i32 %222 to i64
  %224 = getelementptr inbounds [10 x i32], [10 x i32]* %5, i64 0, i64 %223
  %225 = load i32, i32* %224, align 4
  %226 = load i32, i32* %8, align 4
  %227 = sext i32 %226 to i64
  %228 = getelementptr inbounds [10 x i32], [10 x i32]* %6, i64 0, i64 %227
  %229 = load i32, i32* %228, align 4
  %230 = load i32, i32* %8, align 4
  %231 = sext i32 %230 to i64
  %232 = getelementptr inbounds [10 x i32], [10 x i32]* %7, i64 0, i64 %231
  %233 = load i32, i32* %232, align 4
  %234 = load i32, i32* %4, align 4
  %235 = sext i32 %234 to i64
  %236 = getelementptr inbounds [10 x [10 x double]], [10 x [10 x double]]* %9, i64 0, i64 %235
  %237 = load i32, i32* %8, align 4
  %238 = sext i32 %237 to i64
  %239 = getelementptr inbounds [10 x double], [10 x double]* %236, i64 0, i64 %238
  %240 = load double, double* %239, align 8
  %241 = call i32 (i8*, ...) @printf(i8* getelementptr inbounds ([29 x i8], [29 x i8]* @.str.2, i64 0, i64 0), i32 %213, i32 %217, i32 %221, i32 %225, i32 %229, i32 %233, double %240)
  br label %246

242:                                              ; preds = %196
  br label %243

243:                                              ; preds = %242
  %244 = load i32, i32* %8, align 4
  %245 = add nsw i32 %244, 1
  store i32 %245, i32* %8, align 4
  br label %192

246:                                              ; preds = %209, %192
  %247 = load i32, i32* %3, align 4
  %248 = sext i32 %247 to i64
  %249 = getelementptr inbounds [100 x double], [100 x double]* %10, i64 0, i64 %248
  %250 = load double, double* %249, align 8
  %251 = load i32, i32* %4, align 4
  %252 = sext i32 %251 to i64
  %253 = getelementptr inbounds [10 x [10 x double]], [10 x [10 x double]]* %9, i64 0, i64 %252
  %254 = load i32, i32* %8, align 4
  %255 = sext i32 %254 to i64
  %256 = getelementptr inbounds [10 x double], [10 x double]* %253, i64 0, i64 %255
  %257 = load double, double* %256, align 8
  %258 = fcmp oeq double %250, %257
  br i1 %258, label %259, label %266

259:                                              ; preds = %246
  %260 = load i32, i32* %4, align 4
  %261 = sext i32 %260 to i64
  %262 = getelementptr inbounds [10 x [10 x double]], [10 x [10 x double]]* %9, i64 0, i64 %261
  %263 = load i32, i32* %8, align 4
  %264 = sext i32 %263 to i64
  %265 = getelementptr inbounds [10 x double], [10 x double]* %262, i64 0, i64 %264
  store double 1.000000e+07, double* %265, align 8
  br label %270

266:                                              ; preds = %246
  br label %267

267:                                              ; preds = %266
  %268 = load i32, i32* %4, align 4
  %269 = add nsw i32 %268, 1
  store i32 %269, i32* %4, align 4
  br label %185

270:                                              ; preds = %259, %185
  br label %271

271:                                              ; preds = %270
  %272 = load i32, i32* %3, align 4
  %273 = add nsw i32 %272, -1
  store i32 %273, i32* %3, align 4
  br label %181

274:                                              ; preds = %181
  ret i32 0
}